target datalayout = "e-m:e-p270:32:32-p271:32:32-p272:64:64-i64:64-i128:128-f80:128-n8:16:32:64-S128"
target triple = "x86_64-pc-linux-gnu"

@.str.5 = private unnamed_addr constant [33 x i8] c"../openssl/test/quic_wire_test.c\00", align 1
@.str.8 = private unnamed_addr constant [2 x i8] c"1\00", align 1
@.str.82 = private unnamed_addr constant [56 x i8] c"ossl_quic_wire_encode_frame_max_streams(pkt, 0, 0x1234)\00", align 1
@.str.83 = private unnamed_addr constant [56 x i8] c"ossl_quic_wire_encode_frame_max_streams(pkt, 1, 0x9781)\00", align 1

; Function Attrs: nounwind uwtable
define internal i32 @encode_case_12_enc(ptr noundef %0) #0 {
  %2 = alloca i32, align 4
  %3 = alloca ptr, align 8
  store ptr %0, ptr %3, align 8, !tbaa !44
  %4 = load ptr, ptr %3, align 8, !tbaa !44
  %5 = call i32 @ossl_quic_wire_encode_frame_max_streams(ptr noundef %4, i8 noundef signext 0, i64 noundef 4660)
  %6 = call i32 @test_int_eq(ptr noundef @.str.5, i32 noundef 523, ptr noundef @.str.82, ptr noundef @.str.8, i32 noundef %5, i32 noundef 1)
  %7 = icmp ne i32 %6, 0
  br i1 %7, label %9, label %8

8:                                                ; preds = %1
  store i32 0, ptr %2, align 4
  br label %16

9:                                                ; preds = %1
  %10 = load ptr, ptr %3, align 8, !tbaa !44
  %11 = call i32 @ossl_quic_wire_encode_frame_max_streams(ptr noundef %10, i8 noundef signext 1, i64 noundef 38785)
  %12 = call i32 @test_int_eq(ptr noundef @.str.5, i32 noundef 526, ptr noundef @.str.83, ptr noundef @.str.8, i32 noundef %11, i32 noundef 1)
  %13 = icmp ne i32 %12, 0
  br i1 %13, label %15, label %14

14:                                               ; preds = %9
  store i32 0, ptr %2, align 4
  br label %16

15:                                               ; preds = %9
  store i32 1, ptr %2, align 4
  br label %16

16:                                               ; preds = %15, %14, %8
  %17 = load i32, ptr %2, align 4
  ret i32 %17
}