; Function Attrs: nounwind uwtable
define internal range(i32 0, 2) i32 @encode_case_12_enc(ptr noundef %0) #0 {
  %2 = tail call i32 @ossl_quic_wire_encode_frame_max_streams(ptr noundef %0, i8 noundef signext 0, i64 noundef 4660) #4
  %3 = tail call i32 @test_int_eq(ptr noundef nonnull @.str.5, i32 noundef 523, ptr noundef nonnull @.str.82, ptr noundef nonnull @.str.8, i32 noundef %2, i32 noundef 1) #4
  %.not = icmp eq i32 %3, 0
  br i1 %.not, label %7, label %4

4:                                                ; preds = %1
  %5 = tail call i32 @ossl_quic_wire_encode_frame_max_streams(ptr noundef %0, i8 noundef signext 1, i64 noundef 38785) #4
  %6 = tail call i32 @test_int_eq(ptr noundef nonnull @.str.5, i32 noundef 526, ptr noundef nonnull @.str.83, ptr noundef nonnull @.str.8, i32 noundef %5, i32 noundef 1) #4
  %.not2 = icmp ne i32 %6, 0
  %. = zext i1 %.not2 to i32
  br label %7

7:                                                ; preds = %4, %1
  %.0 = phi i32 [ 0, %1 ], [ %., %4 ]
  ret i32 %.0
}